target datalayout = "e-m:e-p270:32:32-p271:32:32-p272:64:64-i64:64-i128:128-f80:128-n8:16:32:64-S128"
target triple = "x86_64-pc-linux-gnu"

%struct._object = type { %union.anon, ptr }
%union.anon = type { i64 }

@.str.65 = private unnamed_addr constant [40 x i8] c"../cpython/Modules/_testcapi/pyatomic.c\00", align 1
@_Py_NoneStruct = external global %struct._object, align 8
@.str.232 = private unnamed_addr constant [17 x i8] c"x == (uint64_t)1\00", align 1
@.str.351 = private unnamed_addr constant [43 x i8] c"_Py_atomic_or_uint64(&x, z) == (uint64_t)0\00", align 1
@__PRETTY_FUNCTION__.test_atomic_and_or_uint64 = private unnamed_addr constant [60 x i8] c"PyObject *test_atomic_and_or_uint64(PyObject *, PyObject *)\00", align 1
@.str.352 = private unnamed_addr constant [17 x i8] c"x == (uint64_t)3\00", align 1
@.str.353 = private unnamed_addr constant [44 x i8] c"_Py_atomic_and_uint64(&x, y) == (uint64_t)3\00", align 1

; Function Attrs: inlinehint nounwind uwtable
define internal i64 @_Py_atomic_and_uint64(ptr noundef %0, i64 noundef %1) #3 {
  %3 = alloca ptr, align 8
  %4 = alloca i64, align 8
  %5 = alloca i64, align 8
  %6 = alloca i64, align 8
  store ptr %0, ptr %3, align 8, !tbaa !22
  store i64 %1, ptr %4, align 8, !tbaa !13
  %7 = load ptr, ptr %3, align 8, !tbaa !22
  %8 = load i64, ptr %4, align 8, !tbaa !13
  store i64 %8, ptr %5, align 8, !tbaa !13
  %9 = load i64, ptr %5, align 8
  %10 = atomicrmw and ptr %7, i64 %9 seq_cst, align 8
  store i64 %10, ptr %6, align 8
  %11 = load i64, ptr %6, align 8, !tbaa !13
  ret i64 %11
}

; Function Attrs: inlinehint nounwind uwtable
define internal i64 @_Py_atomic_or_uint64(ptr noundef %0, i64 noundef %1) #3 {
  %3 = alloca ptr, align 8
  %4 = alloca i64, align 8
  %5 = alloca i64, align 8
  %6 = alloca i64, align 8
  store ptr %0, ptr %3, align 8, !tbaa !22
  store i64 %1, ptr %4, align 8, !tbaa !13
  %7 = load ptr, ptr %3, align 8, !tbaa !22
  %8 = load i64, ptr %4, align 8, !tbaa !13
  store i64 %8, ptr %5, align 8, !tbaa !13
  %9 = load i64, ptr %5, align 8
  %10 = atomicrmw or ptr %7, i64 %9 seq_cst, align 8
  store i64 %10, ptr %6, align 8
  %11 = load i64, ptr %6, align 8, !tbaa !13
  ret i64 %11
}

; Function Attrs: nounwind uwtable
define internal ptr @test_atomic_and_or_uint64(ptr noundef %0, ptr noundef %1) #0 {
  %3 = alloca ptr, align 8
  %4 = alloca ptr, align 8
  %5 = alloca i64, align 8
  %6 = alloca i64, align 8
  %7 = alloca i64, align 8
  store ptr %0, ptr %3, align 8, !tbaa !3
  store ptr %1, ptr %4, align 8, !tbaa !3
  call void @llvm.lifetime.start.p0(i64 8, ptr %5) #5
  store i64 0, ptr %5, align 8, !tbaa !13
  call void @llvm.lifetime.start.p0(i64 8, ptr %6) #5
  store i64 1, ptr %6, align 8, !tbaa !13
  call void @llvm.lifetime.start.p0(i64 8, ptr %7) #5
  store i64 3, ptr %7, align 8, !tbaa !13
  %8 = load i64, ptr %7, align 8, !tbaa !13
  %9 = call i64 @_Py_atomic_or_uint64(ptr noundef %5, i64 noundef %8)
  %10 = icmp eq i64 %9, 0
  br i1 %10, label %11, label %12

11:                                               ; preds = %2
  br label %14

12:                                               ; preds = %2
  call void @__assert_fail(ptr noundef @.str.351, ptr noundef @.str.65, i32 noundef 121, ptr noundef @__PRETTY_FUNCTION__.test_atomic_and_or_uint64) #6
  unreachable

13:                                               ; No predecessors!
  br label %14

14:                                               ; preds = %13, %11
  %15 = load i64, ptr %5, align 8, !tbaa !13
  %16 = icmp eq i64 %15, 3
  br i1 %16, label %17, label %18

17:                                               ; preds = %14
  br label %20

18:                                               ; preds = %14
  call void @__assert_fail(ptr noundef @.str.352, ptr noundef @.str.65, i32 noundef 121, ptr noundef @__PRETTY_FUNCTION__.test_atomic_and_or_uint64) #6
  unreachable

19:                                               ; No predecessors!
  br label %20

20:                                               ; preds = %19, %17
  %21 = load i64, ptr %6, align 8, !tbaa !13
  %22 = call i64 @_Py_atomic_and_uint64(ptr noundef %5, i64 noundef %21)
  %23 = icmp eq i64 %22, 3
  br i1 %23, label %24, label %25

24:                                               ; preds = %20
  br label %27

25:                                               ; preds = %20
  call void @__assert_fail(ptr noundef @.str.353, ptr noundef @.str.65, i32 noundef 121, ptr noundef @__PRETTY_FUNCTION__.test_atomic_and_or_uint64) #6
  unreachable

26:                                               ; No predecessors!
  br label %27

27:                                               ; preds = %26, %24
  %28 = load i64, ptr %5, align 8, !tbaa !13
  %29 = icmp eq i64 %28, 1
  br i1 %29, label %30, label %31

30:                                               ; preds = %27
  br label %33

31:                                               ; preds = %27
  call void @__assert_fail(ptr noundef @.str.232, ptr noundef @.str.65, i32 noundef 121, ptr noundef @__PRETTY_FUNCTION__.test_atomic_and_or_uint64) #6
  unreachable

32:                                               ; No predecessors!
  br label %33

33:                                               ; preds = %32, %30
  call void @llvm.lifetime.end.p0(i64 8, ptr %7) #5
  call void @llvm.lifetime.end.p0(i64 8, ptr %6) #5
  call void @llvm.lifetime.end.p0(i64 8, ptr %5) #5
  ret ptr @_Py_NoneStruct
}